target datalayout = "e-m:e-p270:32:32-p271:32:32-p272:64:64-i64:64-i128:128-f80:128-n8:16:32:64-S128"
target triple = "x86_64-pc-linux-gnu"

%struct.pointf_s = type { double, double }
%union.inside_t = type { %struct.anon.0 }
%struct.anon.0 = type { ptr, ptr, ptr, double, ptr, i64, i64, double, double, double, double }
%struct.bezier = type { ptr, i64, i32, i32, %struct.pointf_s, %struct.pointf_s }
%struct.anon = type { ptr, ptr }
%struct.arrowtype_t = type { i32, double, ptr, ptr }

@E_penwidth = external global ptr, align 8
@E_arrowsz = external global ptr, align 8

; Function Attrs: nounwind uwtable
define internal double @arrow_length(ptr noundef %0, i32 noundef %1) #0 {
  %3 = alloca double, align 8
  %4 = alloca ptr, align 8
  %5 = alloca i32, align 4
  %6 = alloca double, align 8
  %7 = alloca i32, align 4
  %8 = alloca double, align 8
  %9 = alloca double, align 8
  %10 = alloca i32, align 4
  %11 = alloca i32, align 4
  %12 = alloca i64, align 8
  %13 = alloca ptr, align 8
  %14 = alloca i32, align 4
  store ptr %0, ptr %4, align 8, !tbaa !3
  store i32 %1, ptr %5, align 4, !tbaa !10
  call void @llvm.lifetime.start.p0(i64 8, ptr %6) #9
  store double 0.000000e+00, ptr %6, align 8, !tbaa !53
  call void @llvm.lifetime.start.p0(i64 4, ptr %7) #9
  call void @llvm.lifetime.start.p0(i64 8, ptr %8) #9
  %15 = load ptr, ptr %4, align 8, !tbaa !3
  %16 = load ptr, ptr @E_penwidth, align 8, !tbaa !12
  %17 = call double @late_double(ptr noundef %15, ptr noundef %16, double noundef 1.000000e+00, double noundef 0.000000e+00)
  store double %17, ptr %8, align 8, !tbaa !53
  call void @llvm.lifetime.start.p0(i64 8, ptr %9) #9
  %18 = load ptr, ptr %4, align 8, !tbaa !3
  %19 = load ptr, ptr @E_arrowsz, align 8, !tbaa !12
  %20 = call double @late_double(ptr noundef %18, ptr noundef %19, double noundef 1.000000e+00, double noundef 0.000000e+00)
  store double %20, ptr %9, align 8, !tbaa !53
  %21 = load double, ptr %9, align 8, !tbaa !53
  %22 = fcmp oeq double %21, 0.000000e+00
  br i1 %22, label %23, label %24

23:                                               ; preds = %2
  store double 0.000000e+00, ptr %3, align 8
  store i32 1, ptr %10, align 4
  br label %78

24:                                               ; preds = %2
  store i32 0, ptr %7, align 4, !tbaa !10
  br label %25

25:                                               ; preds = %73, %24
  %26 = load i32, ptr %7, align 4, !tbaa !10
  %27 = icmp slt i32 %26, 4
  br i1 %27, label %28, label %76

28:                                               ; preds = %25
  call void @llvm.lifetime.start.p0(i64 4, ptr %11) #9
  %29 = load i32, ptr %5, align 4, !tbaa !10
  %30 = load i32, ptr %7, align 4, !tbaa !10
  %31 = mul nsw i32 %30, 8
  %32 = lshr i32 %29, %31
  %33 = and i32 %32, 15
  store i32 %33, ptr %11, align 4, !tbaa !10
  call void @llvm.lifetime.start.p0(i64 8, ptr %12) #9
  store i64 0, ptr %12, align 8, !tbaa !50
  br label %34

34:                                               ; preds = %68, %28
  %35 = load i64, ptr %12, align 8, !tbaa !50
  %36 = icmp ult i64 %35, 8
  br i1 %36, label %38, label %37

37:                                               ; preds = %34
  store i32 5, ptr %10, align 4
  br label %71

38:                                               ; preds = %34
  call void @llvm.lifetime.start.p0(i64 8, ptr %13) #9
  %39 = load i64, ptr %12, align 8, !tbaa !50
  %40 = getelementptr inbounds nuw [8 x %struct.arrowtype_t], ptr @Arrowtypes, i64 0, i64 %39
  store ptr %40, ptr %13, align 8, !tbaa !17
  %41 = load i32, ptr %11, align 4, !tbaa !10
  %42 = load ptr, ptr %13, align 8, !tbaa !17
  %43 = getelementptr inbounds nuw %struct.arrowtype_t, ptr %42, i32 0, i32 0
  %44 = load i32, ptr %43, align 8, !tbaa !59
  %45 = icmp eq i32 %41, %44
  br i1 %45, label %46, label %64

46:                                               ; preds = %38
  call void @llvm.lifetime.start.p0(i64 4, ptr %14) #9
  %47 = load i32, ptr %5, align 4, !tbaa !10
  %48 = load i32, ptr %7, align 4, !tbaa !10
  %49 = mul nsw i32 %48, 8
  %50 = lshr i32 %47, %49
  %51 = and i32 %50, 255
  store i32 %51, ptr %14, align 4, !tbaa !10
  %52 = load ptr, ptr %13, align 8, !tbaa !17
  %53 = getelementptr inbounds nuw %struct.arrowtype_t, ptr %52, i32 0, i32 3
  %54 = load ptr, ptr %53, align 8, !tbaa !61
  %55 = load ptr, ptr %13, align 8, !tbaa !17
  %56 = getelementptr inbounds nuw %struct.arrowtype_t, ptr %55, i32 0, i32 1
  %57 = load double, ptr %56, align 8, !tbaa !62
  %58 = load double, ptr %9, align 8, !tbaa !53
  %59 = load double, ptr %8, align 8, !tbaa !53
  %60 = load i32, ptr %14, align 4, !tbaa !10
  %61 = call double %54(double noundef %57, double noundef %58, double noundef %59, i32 noundef %60)
  %62 = load double, ptr %6, align 8, !tbaa !53
  %63 = fadd double %62, %61
  store double %63, ptr %6, align 8, !tbaa !53
  store i32 5, ptr %10, align 4
  call void @llvm.lifetime.end.p0(i64 4, ptr %14) #9
  br label %65

64:                                               ; preds = %38
  store i32 0, ptr %10, align 4
  br label %65

65:                                               ; preds = %64, %46
  call void @llvm.lifetime.end.p0(i64 8, ptr %13) #9
  %66 = load i32, ptr %10, align 4
  switch i32 %66, label %71 [
    i32 0, label %67
  ]

67:                                               ; preds = %65
  br label %68

68:                                               ; preds = %67
  %69 = load i64, ptr %12, align 8, !tbaa !50
  %70 = add i64 %69, 1
  store i64 %70, ptr %12, align 8, !tbaa !50
  br label %34, !llvm.loop !63

71:                                               ; preds = %65, %37
  call void @llvm.lifetime.end.p0(i64 8, ptr %12) #9
  br label %72

72:                                               ; preds = %71
  call void @llvm.lifetime.end.p0(i64 4, ptr %11) #9
  br label %73

73:                                               ; preds = %72
  %74 = load i32, ptr %7, align 4, !tbaa !10
  %75 = add nsw i32 %74, 1
  store i32 %75, ptr %7, align 4, !tbaa !10
  br label %25, !llvm.loop !64

76:                                               ; preds = %25
  %77 = load double, ptr %6, align 8, !tbaa !53
  store double %77, ptr %3, align 8
  store i32 1, ptr %10, align 4
  br label %78

78:                                               ; preds = %76, %23
  call void @llvm.lifetime.end.p0(i64 8, ptr %9) #9
  call void @llvm.lifetime.end.p0(i64 8, ptr %8) #9
  call void @llvm.lifetime.end.p0(i64 4, ptr %7) #9
  call void @llvm.lifetime.end.p0(i64 8, ptr %6) #9
  %79 = load double, ptr %3, align 8
  ret double %79
}

; Function Attrs: nounwind uwtable
define i64 @arrowStartClip(ptr noundef %0, ptr noundef %1, i64 noundef %2, i64 noundef %3, ptr noundef %4, i32 noundef %5) #0 {
  %7 = alloca ptr, align 8
  %8 = alloca ptr, align 8
  %9 = alloca i64, align 8
  %10 = alloca i64, align 8
  %11 = alloca ptr, align 8
  %12 = alloca i32, align 4
  %13 = alloca %union.inside_t, align 8
  %14 = alloca [4 x %struct.pointf_s], align 16
  %15 = alloca double, align 8
  %16 = alloca double, align 8
  store ptr %0, ptr %7, align 8, !tbaa !3
  store ptr %1, ptr %8, align 8, !tbaa !49
  store i64 %2, ptr %9, align 8, !tbaa !50
  store i64 %3, ptr %10, align 8, !tbaa !50
  store ptr %4, ptr %11, align 8, !tbaa !51
  store i32 %5, ptr %12, align 4, !tbaa !10
  call void @llvm.lifetime.start.p0(i64 88, ptr %13) #9
  call void @llvm.lifetime.start.p0(i64 64, ptr %14) #9
  call void @llvm.lifetime.start.p0(i64 8, ptr %15) #9
  call void @llvm.lifetime.start.p0(i64 8, ptr %16) #9
  %17 = load ptr, ptr %7, align 8, !tbaa !3
  %18 = load i32, ptr %12, align 4, !tbaa !10
  %19 = call double @arrow_length(ptr noundef %17, i32 noundef %18)
  store double %19, ptr %15, align 8, !tbaa !53
  %20 = load double, ptr %15, align 8, !tbaa !53
  %21 = load double, ptr %15, align 8, !tbaa !53
  %22 = fmul double %20, %21
  store double %22, ptr %16, align 8, !tbaa !53
  %23 = load i32, ptr %12, align 4, !tbaa !10
  %24 = load ptr, ptr %11, align 8, !tbaa !51
  %25 = getelementptr inbounds nuw %struct.bezier, ptr %24, i32 0, i32 2
  store i32 %23, ptr %25, align 8, !tbaa !67
  %26 = load ptr, ptr %11, align 8, !tbaa !51
  %27 = getelementptr inbounds nuw %struct.bezier, ptr %26, i32 0, i32 4
  %28 = load ptr, ptr %8, align 8, !tbaa !49
  %29 = load i64, ptr %9, align 8, !tbaa !50
  %30 = getelementptr inbounds nuw %struct.pointf_s, ptr %28, i64 %29
  call void @llvm.memcpy.p0.p0.i64(ptr align 8 %27, ptr align 8 %30, i64 16, i1 false), !tbaa.struct !56
  %31 = load i64, ptr %10, align 8, !tbaa !50
  %32 = load i64, ptr %9, align 8, !tbaa !50
  %33 = icmp ugt i64 %31, %32
  br i1 %33, label %34, label %90

34:                                               ; preds = %6
  %35 = load ptr, ptr %8, align 8, !tbaa !49
  %36 = load i64, ptr %9, align 8, !tbaa !50
  %37 = getelementptr inbounds nuw %struct.pointf_s, ptr %35, i64 %36
  %38 = getelementptr inbounds nuw %struct.pointf_s, ptr %37, i32 0, i32 0
  %39 = load double, ptr %38, align 8, !tbaa !57
  %40 = load ptr, ptr %8, align 8, !tbaa !49
  %41 = load i64, ptr %9, align 8, !tbaa !50
  %42 = add i64 %41, 3
  %43 = getelementptr inbounds nuw %struct.pointf_s, ptr %40, i64 %42
  %44 = getelementptr inbounds nuw %struct.pointf_s, ptr %43, i32 0, i32 0
  %45 = load double, ptr %44, align 8, !tbaa !57
  %46 = fsub double %39, %45
  %47 = load ptr, ptr %8, align 8, !tbaa !49
  %48 = load i64, ptr %9, align 8, !tbaa !50
  %49 = getelementptr inbounds nuw %struct.pointf_s, ptr %47, i64 %48
  %50 = getelementptr inbounds nuw %struct.pointf_s, ptr %49, i32 0, i32 0
  %51 = load double, ptr %50, align 8, !tbaa !57
  %52 = load ptr, ptr %8, align 8, !tbaa !49
  %53 = load i64, ptr %9, align 8, !tbaa !50
  %54 = add i64 %53, 3
  %55 = getelementptr inbounds nuw %struct.pointf_s, ptr %52, i64 %54
  %56 = getelementptr inbounds nuw %struct.pointf_s, ptr %55, i32 0, i32 0
  %57 = load double, ptr %56, align 8, !tbaa !57
  %58 = fsub double %51, %57
  %59 = load ptr, ptr %8, align 8, !tbaa !49
  %60 = load i64, ptr %9, align 8, !tbaa !50
  %61 = getelementptr inbounds nuw %struct.pointf_s, ptr %59, i64 %60
  %62 = getelementptr inbounds nuw %struct.pointf_s, ptr %61, i32 0, i32 1
  %63 = load double, ptr %62, align 8, !tbaa !58
  %64 = load ptr, ptr %8, align 8, !tbaa !49
  %65 = load i64, ptr %9, align 8, !tbaa !50
  %66 = add i64 %65, 3
  %67 = getelementptr inbounds nuw %struct.pointf_s, ptr %64, i64 %66
  %68 = getelementptr inbounds nuw %struct.pointf_s, ptr %67, i32 0, i32 1
  %69 = load double, ptr %68, align 8, !tbaa !58
  %70 = fsub double %63, %69
  %71 = load ptr, ptr %8, align 8, !tbaa !49
  %72 = load i64, ptr %9, align 8, !tbaa !50
  %73 = getelementptr inbounds nuw %struct.pointf_s, ptr %71, i64 %72
  %74 = getelementptr inbounds nuw %struct.pointf_s, ptr %73, i32 0, i32 1
  %75 = load double, ptr %74, align 8, !tbaa !58
  %76 = load ptr, ptr %8, align 8, !tbaa !49
  %77 = load i64, ptr %9, align 8, !tbaa !50
  %78 = add i64 %77, 3
  %79 = getelementptr inbounds nuw %struct.pointf_s, ptr %76, i64 %78
  %80 = getelementptr inbounds nuw %struct.pointf_s, ptr %79, i32 0, i32 1
  %81 = load double, ptr %80, align 8, !tbaa !58
  %82 = fsub double %75, %81
  %83 = fmul double %70, %82
  %84 = call double @llvm.fmuladd.f64(double %46, double %58, double %83)
  %85 = load double, ptr %16, align 8, !tbaa !53
  %86 = fcmp olt double %84, %85
  br i1 %86, label %87, label %90

87:                                               ; preds = %34
  %88 = load i64, ptr %9, align 8, !tbaa !50
  %89 = add i64 %88, 3
  store i64 %89, ptr %9, align 8, !tbaa !50
  br label %90

90:                                               ; preds = %87, %34, %6
  %91 = getelementptr inbounds [4 x %struct.pointf_s], ptr %14, i64 0, i64 0
  %92 = load ptr, ptr %8, align 8, !tbaa !49
  %93 = load i64, ptr %9, align 8, !tbaa !50
  %94 = add i64 %93, 3
  %95 = getelementptr inbounds nuw %struct.pointf_s, ptr %92, i64 %94
  call void @llvm.memcpy.p0.p0.i64(ptr align 16 %91, ptr align 8 %95, i64 16, i1 false), !tbaa.struct !56
  %96 = getelementptr inbounds [4 x %struct.pointf_s], ptr %14, i64 0, i64 1
  %97 = load ptr, ptr %8, align 8, !tbaa !49
  %98 = load i64, ptr %9, align 8, !tbaa !50
  %99 = add i64 %98, 2
  %100 = getelementptr inbounds nuw %struct.pointf_s, ptr %97, i64 %99
  call void @llvm.memcpy.p0.p0.i64(ptr align 16 %96, ptr align 8 %100, i64 16, i1 false), !tbaa.struct !56
  %101 = getelementptr inbounds [4 x %struct.pointf_s], ptr %14, i64 0, i64 2
  %102 = load ptr, ptr %8, align 8, !tbaa !49
  %103 = load i64, ptr %9, align 8, !tbaa !50
  %104 = add i64 %103, 1
  %105 = getelementptr inbounds nuw %struct.pointf_s, ptr %102, i64 %104
  call void @llvm.memcpy.p0.p0.i64(ptr align 16 %101, ptr align 8 %105, i64 16, i1 false), !tbaa.struct !56
  %106 = getelementptr inbounds [4 x %struct.pointf_s], ptr %14, i64 0, i64 3
  %107 = load ptr, ptr %11, align 8, !tbaa !51
  %108 = getelementptr inbounds nuw %struct.bezier, ptr %107, i32 0, i32 4
  call void @llvm.memcpy.p0.p0.i64(ptr align 16 %106, ptr align 8 %108, i64 16, i1 false), !tbaa.struct !56
  %109 = load double, ptr %15, align 8, !tbaa !53
  %110 = fcmp ogt double %109, 0.000000e+00
  br i1 %110, label %111, label %116

111:                                              ; preds = %90
  %112 = getelementptr inbounds [4 x %struct.pointf_s], ptr %14, i64 0, i64 3
  %113 = getelementptr inbounds nuw %struct.anon, ptr %13, i32 0, i32 0
  store ptr %112, ptr %113, align 8, !tbaa !16
  %114 = getelementptr inbounds nuw %struct.anon, ptr %13, i32 0, i32 1
  store ptr %16, ptr %114, align 8, !tbaa !16
  %115 = getelementptr inbounds [4 x %struct.pointf_s], ptr %14, i64 0, i64 0
  call void @bezier_clip(ptr noundef %13, ptr noundef @inside, ptr noundef %115, i1 noundef zeroext false)
  br label %116

116:                                              ; preds = %111, %90
  %117 = load ptr, ptr %8, align 8, !tbaa !49
  %118 = load i64, ptr %9, align 8, !tbaa !50
  %119 = getelementptr inbounds nuw %struct.pointf_s, ptr %117, i64 %118
  %120 = getelementptr inbounds [4 x %struct.pointf_s], ptr %14, i64 0, i64 3
  call void @llvm.memcpy.p0.p0.i64(ptr align 8 %119, ptr align 16 %120, i64 16, i1 false), !tbaa.struct !56
  %121 = load ptr, ptr %8, align 8, !tbaa !49
  %122 = load i64, ptr %9, align 8, !tbaa !50
  %123 = add i64 %122, 1
  %124 = getelementptr inbounds nuw %struct.pointf_s, ptr %121, i64 %123
  %125 = getelementptr inbounds [4 x %struct.pointf_s], ptr %14, i64 0, i64 2
  call void @llvm.memcpy.p0.p0.i64(ptr align 8 %124, ptr align 16 %125, i64 16, i1 false), !tbaa.struct !56
  %126 = load ptr, ptr %8, align 8, !tbaa !49
  %127 = load i64, ptr %9, align 8, !tbaa !50
  %128 = add i64 %127, 2
  %129 = getelementptr inbounds nuw %struct.pointf_s, ptr %126, i64 %128
  %130 = getelementptr inbounds [4 x %struct.pointf_s], ptr %14, i64 0, i64 1
  call void @llvm.memcpy.p0.p0.i64(ptr align 8 %129, ptr align 16 %130, i64 16, i1 false), !tbaa.struct !56
  %131 = load ptr, ptr %8, align 8, !tbaa !49
  %132 = load i64, ptr %9, align 8, !tbaa !50
  %133 = add i64 %132, 3
  %134 = getelementptr inbounds nuw %struct.pointf_s, ptr %131, i64 %133
  %135 = getelementptr inbounds [4 x %struct.pointf_s], ptr %14, i64 0, i64 0
  call void @llvm.memcpy.p0.p0.i64(ptr align 8 %134, ptr align 16 %135, i64 16, i1 false), !tbaa.struct !56
  %136 = load i64, ptr %9, align 8, !tbaa !50
  call void @llvm.lifetime.end.p0(i64 8, ptr %16) #9
  call void @llvm.lifetime.end.p0(i64 8, ptr %15) #9
  call void @llvm.lifetime.end.p0(i64 64, ptr %14) #9
  call void @llvm.lifetime.end.p0(i64 88, ptr %13) #9
  ret i64 %136
}